target datalayout = "e-m:e-p270:32:32-p271:32:32-p272:64:64-i64:64-i128:128-f80:128-n8:16:32:64-S128"
target triple = "x86_64-pc-linux-gnu"

%struct.AVFilterContext = type { ptr, ptr, ptr, ptr, ptr, i32, ptr, ptr, i32, ptr, ptr, i32, i32, ptr, ptr, ptr, ptr, i32, ptr, i32, i32 }
%struct.SpeechNormalizerContext = type { ptr, double, double, double, double, double, double, double, ptr, %struct.AVChannelLayout, i32, i32, ptr, double, i32, i32, i64, %struct.FFBufQueue, ptr, [2 x ptr] }
%struct.AVChannelLayout = type { i32, i32, %union.anon.1, ptr }
%union.anon.1 = type { i64 }
%struct.FFBufQueue = type { [1024 x ptr], i16, i16 }

@.str.3 = private unnamed_addr constant [30 x i8] c"Assertion %s failed at %s:%d\0A\00", align 1
@.str.39 = private unnamed_addr constant [17 x i8] c"queue->available\00", align 1
@.str.40 = private unnamed_addr constant [26 x i8] c"libavfilter/bufferqueue.h\00", align 1

; Function Attrs: inlinehint nounwind uwtable
define internal ptr @ff_bufqueue_get(ptr noundef %0) #6 {
  %2 = alloca ptr, align 8
  %3 = alloca ptr, align 8
  store ptr %0, ptr %2, align 8, !tbaa !122
  call void @llvm.lifetime.start.p0(i64 8, ptr %3) #9
  %4 = load ptr, ptr %2, align 8, !tbaa !122
  %5 = getelementptr inbounds nuw %struct.FFBufQueue, ptr %4, i32 0, i32 0
  %6 = load ptr, ptr %2, align 8, !tbaa !122
  %7 = getelementptr inbounds nuw %struct.FFBufQueue, ptr %6, i32 0, i32 1
  %8 = load i16, ptr %7, align 8, !tbaa !126
  %9 = zext i16 %8 to i64
  %10 = getelementptr inbounds nuw [1024 x ptr], ptr %5, i64 0, i64 %9
  %11 = load ptr, ptr %10, align 8, !tbaa !43
  store ptr %11, ptr %3, align 8, !tbaa !43
  br label %12

12:                                               ; preds = %1
  %13 = load ptr, ptr %2, align 8, !tbaa !122
  %14 = getelementptr inbounds nuw %struct.FFBufQueue, ptr %13, i32 0, i32 2
  %15 = load i16, ptr %14, align 2, !tbaa !124
  %16 = icmp ne i16 %15, 0
  br i1 %16, label %18, label %17

17:                                               ; preds = %12
  call void (ptr, i32, ptr, ...) @av_log(ptr noundef null, i32 noundef 0, ptr noundef @.str.3, ptr noundef @.str.39, ptr noundef @.str.40, i32 noundef 101)
  call void @abort() #11
  unreachable

18:                                               ; preds = %12
  br label %19

19:                                               ; preds = %18
  br label %20

20:                                               ; preds = %19
  %21 = load ptr, ptr %2, align 8, !tbaa !122
  %22 = getelementptr inbounds nuw %struct.FFBufQueue, ptr %21, i32 0, i32 2
  %23 = load i16, ptr %22, align 2, !tbaa !124
  %24 = add i16 %23, -1
  store i16 %24, ptr %22, align 2, !tbaa !124
  %25 = load ptr, ptr %2, align 8, !tbaa !122
  %26 = getelementptr inbounds nuw %struct.FFBufQueue, ptr %25, i32 0, i32 0
  %27 = load ptr, ptr %2, align 8, !tbaa !122
  %28 = getelementptr inbounds nuw %struct.FFBufQueue, ptr %27, i32 0, i32 1
  %29 = load i16, ptr %28, align 8, !tbaa !126
  %30 = zext i16 %29 to i64
  %31 = getelementptr inbounds nuw [1024 x ptr], ptr %26, i64 0, i64 %30
  store ptr null, ptr %31, align 8, !tbaa !43
  %32 = load ptr, ptr %2, align 8, !tbaa !122
  %33 = getelementptr inbounds nuw %struct.FFBufQueue, ptr %32, i32 0, i32 1
  %34 = load i16, ptr %33, align 8, !tbaa !126
  %35 = zext i16 %34 to i32
  %36 = add nsw i32 %35, 1
  %37 = srem i32 %36, 1024
  %38 = trunc i32 %37 to i16
  %39 = load ptr, ptr %2, align 8, !tbaa !122
  %40 = getelementptr inbounds nuw %struct.FFBufQueue, ptr %39, i32 0, i32 1
  store i16 %38, ptr %40, align 8, !tbaa !126
  %41 = load ptr, ptr %3, align 8, !tbaa !43
  call void @llvm.lifetime.end.p0(i64 8, ptr %3) #9
  ret ptr %41
}

; Function Attrs: inlinehint nounwind uwtable
define internal void @ff_bufqueue_discard_all(ptr noundef %0) #6 {
  %2 = alloca ptr, align 8
  %3 = alloca ptr, align 8
  store ptr %0, ptr %2, align 8, !tbaa !122
  br label %4

4:                                                ; preds = %9, %1
  %5 = load ptr, ptr %2, align 8, !tbaa !122
  %6 = getelementptr inbounds nuw %struct.FFBufQueue, ptr %5, i32 0, i32 2
  %7 = load i16, ptr %6, align 2, !tbaa !124
  %8 = icmp ne i16 %7, 0
  br i1 %8, label %9, label %12

9:                                                ; preds = %4
  call void @llvm.lifetime.start.p0(i64 8, ptr %3) #9
  %10 = load ptr, ptr %2, align 8, !tbaa !122
  %11 = call ptr @ff_bufqueue_get(ptr noundef %10)
  store ptr %11, ptr %3, align 8, !tbaa !43
  call void @av_frame_free(ptr noundef %3)
  call void @llvm.lifetime.end.p0(i64 8, ptr %3) #9
  br label %4, !llvm.loop !125

12:                                               ; preds = %4
  ret void
}

; Function Attrs: cold nounwind optsize uwtable
define internal void @uninit(ptr noundef %0) #0 {
  %2 = alloca ptr, align 8
  %3 = alloca ptr, align 8
  store ptr %0, ptr %2, align 8, !tbaa !4
  call void @llvm.lifetime.start.p0(i64 8, ptr %3) #9
  %4 = load ptr, ptr %2, align 8, !tbaa !4
  %5 = getelementptr inbounds nuw %struct.AVFilterContext, ptr %4, i32 0, i32 9
  %6 = load ptr, ptr %5, align 8, !tbaa !9
  store ptr %6, ptr %3, align 8, !tbaa !22
  %7 = load ptr, ptr %3, align 8, !tbaa !22
  %8 = getelementptr inbounds nuw %struct.SpeechNormalizerContext, ptr %7, i32 0, i32 17
  call void @ff_bufqueue_discard_all(ptr noundef %8)
  %9 = load ptr, ptr %3, align 8, !tbaa !22
  %10 = getelementptr inbounds nuw %struct.SpeechNormalizerContext, ptr %9, i32 0, i32 9
  call void @av_channel_layout_uninit(ptr noundef %10)
  %11 = load ptr, ptr %3, align 8, !tbaa !22
  %12 = getelementptr inbounds nuw %struct.SpeechNormalizerContext, ptr %11, i32 0, i32 12
  call void @av_freep(ptr noundef %12)
  call void @llvm.lifetime.end.p0(i64 8, ptr %3) #9
  ret void
}