; Function Attrs: cold nounwind optsize uwtable
define internal void @uninit(ptr noundef readonly captures(none) %0) #0 {
  %2 = alloca ptr, align 8
  %3 = getelementptr inbounds nuw i8, ptr %0, i64 72
  %4 = load ptr, ptr %3, align 8, !tbaa !4
  %5 = getelementptr inbounds nuw i8, ptr %4, i64 136
  %6 = getelementptr inbounds nuw i8, ptr %4, i64 8330
  %7 = load i16, ptr %6, align 2, !tbaa !20
  %.not2.i = icmp eq i16 %7, 0
  br i1 %.not2.i, label %ff_bufqueue_discard_all.exit, label %ff_bufqueue_get.exit.lr.ph.i

ff_bufqueue_get.exit.lr.ph.i:                     ; preds = %1
  %8 = getelementptr inbounds nuw i8, ptr %4, i64 8328
  br label %ff_bufqueue_get.exit.i

ff_bufqueue_get.exit.i:                           ; preds = %ff_bufqueue_get.exit.i, %ff_bufqueue_get.exit.lr.ph.i
  %9 = phi i16 [ %7, %ff_bufqueue_get.exit.lr.ph.i ], [ %17, %ff_bufqueue_get.exit.i ]
  call void @llvm.lifetime.start.p0(i64 8, ptr nonnull %2) #11
  %10 = load i16, ptr %8, align 8, !tbaa !23
  %11 = zext i16 %10 to i64
  %12 = getelementptr inbounds nuw [1024 x ptr], ptr %5, i64 0, i64 %11
  %13 = load ptr, ptr %12, align 8, !tbaa !24
  %14 = add i16 %9, -1
  store i16 %14, ptr %6, align 2, !tbaa !20
  store ptr null, ptr %12, align 8, !tbaa !24
  %15 = add i16 %10, 1
  %16 = and i16 %15, 1023
  store i16 %16, ptr %8, align 8, !tbaa !23
  store ptr %13, ptr %2, align 8, !tbaa !24
  call void @av_frame_free(ptr noundef nonnull %2) #11
  call void @llvm.lifetime.end.p0(i64 8, ptr nonnull %2) #11
  %17 = load i16, ptr %6, align 2, !tbaa !20
  %.not.i = icmp eq i16 %17, 0
  br i1 %.not.i, label %ff_bufqueue_discard_all.exit, label %ff_bufqueue_get.exit.i, !llvm.loop !26

ff_bufqueue_discard_all.exit:                     ; preds = %ff_bufqueue_get.exit.i, %1
  %18 = getelementptr inbounds nuw i8, ptr %4, i64 72
  call void @av_channel_layout_uninit(ptr noundef nonnull %18) #11
  %19 = getelementptr inbounds nuw i8, ptr %4, i64 104
  call void @av_freep(ptr noundef nonnull %19) #11
  ret void
}